; ModuleID = '35/899.c'
source_filename = "35/899.c"
target datalayout = "e-m:e-p270:32:32-p271:32:32-p272:64:64-i64:64-f80:128-n8:16:32:64-S128"
target triple = "x86_64-pc-linux-gnu"

%struct.num = type { i32, i32, i32 }

@.str = private unnamed_addr constant [6 x i8] c"%d,%d\00", align 1
@.str.1 = private unnamed_addr constant [3 x i8] c"%d\00", align 1
@.str.2 = private unnamed_addr constant [6 x i8] c"%d+%d\00", align 1
@.str.3 = private unnamed_addr constant [3 x i8] c"No\00", align 1

; Function Attrs: noinline nounwind uwtable
define dso_local i32 @main() #0 {
  %1 = alloca i32, align 4
  %2 = alloca i32, align 4
  %3 = alloca i32, align 4
  %4 = alloca i32, align 4
  %5 = alloca i32, align 4
  %6 = alloca i32, align 4
  %7 = alloca i32, align 4
  %8 = alloca [8 x [8 x i32]], align 16
  %9 = alloca i32, align 4
  %10 = alloca [8 x %struct.num], align 16
  %11 = alloca [8 x %struct.num], align 16
  store i32 0, i32* %1, align 4
  store i32 0, i32* %9, align 4
  %12 = call i32 (i8*, ...) @__isoc99_scanf(i8* getelementptr inbounds ([6 x i8], [6 x i8]* @.str, i64 0, i64 0), i32* %2, i32* %3)
  store i32 0, i32* %4, align 4
  br label %13

13:                                               ; preds = %81, %0
  %14 = load i32, i32* %4, align 4
  %15 = load i32, i32* %2, align 4
  %16 = icmp slt i32 %14, %15
  br i1 %16, label %17, label %84

17:                                               ; preds = %13
  store i32 0, i32* %5, align 4
  br label %18

18:                                               ; preds = %30, %17
  %19 = load i32, i32* %5, align 4
  %20 = load i32, i32* %3, align 4
  %21 = icmp slt i32 %19, %20
  br i1 %21, label %22, label %33

22:                                               ; preds = %18
  %23 = load i32, i32* %4, align 4
  %24 = sext i32 %23 to i64
  %25 = getelementptr inbounds [8 x [8 x i32]], [8 x [8 x i32]]* %8, i64 0, i64 %24
  %26 = load i32, i32* %5, align 4
  %27 = sext i32 %26 to i64
  %28 = getelementptr inbounds [8 x i32], [8 x i32]* %25, i64 0, i64 %27
  %29 = call i32 (i8*, ...) @__isoc99_scanf(i8* getelementptr inbounds ([3 x i8], [3 x i8]* @.str.1, i64 0, i64 0), i32* %28)
  br label %30

30:                                               ; preds = %22
  %31 = load i32, i32* %5, align 4
  %32 = add nsw i32 %31, 1
  store i32 %32, i32* %5, align 4
  br label %18

33:                                               ; preds = %18
  %34 = load i32, i32* %4, align 4
  %35 = sext i32 %34 to i64
  %36 = getelementptr inbounds [8 x [8 x i32]], [8 x [8 x i32]]* %8, i64 0, i64 %35
  %37 = getelementptr inbounds [8 x i32], [8 x i32]* %36, i64 0, i64 0
  %38 = load i32, i32* %37, align 16
  store i32 %38, i32* %6, align 4
  store i32 0, i32* %5, align 4
  br label %39

39:                                               ; preds = %77, %33
  %40 = load i32, i32* %5, align 4
  %41 = load i32, i32* %3, align 4
  %42 = icmp slt i32 %40, %41
  br i1 %42, label %43, label %80

43:                                               ; preds = %39
  %44 = load i32, i32* %4, align 4
  %45 = sext i32 %44 to i64
  %46 = getelementptr inbounds [8 x [8 x i32]], [8 x [8 x i32]]* %8, i64 0, i64 %45
  %47 = load i32, i32* %5, align 4
  %48 = sext i32 %47 to i64
  %49 = getelementptr inbounds [8 x i32], [8 x i32]* %46, i64 0, i64 %48
  %50 = load i32, i32* %49, align 4
  %51 = load i32, i32* %6, align 4
  %52 = icmp sge i32 %50, %51
  br i1 %52, label %53, label %76

53:                                               ; preds = %43
  %54 = load i32, i32* %4, align 4
  %55 = sext i32 %54 to i64
  %56 = getelementptr inbounds [8 x [8 x i32]], [8 x [8 x i32]]* %8, i64 0, i64 %55
  %57 = load i32, i32* %5, align 4
  %58 = sext i32 %57 to i64
  %59 = getelementptr inbounds [8 x i32], [8 x i32]* %56, i64 0, i64 %58
  %60 = load i32, i32* %59, align 4
  store i32 %60, i32* %6, align 4
  %61 = load i32, i32* %6, align 4
  %62 = load i32, i32* %4, align 4
  %63 = sext i32 %62 to i64
  %64 = getelementptr inbounds [8 x %struct.num], [8 x %struct.num]* %10, i64 0, i64 %63
  %65 = getelementptr inbounds %struct.num, %struct.num* %64, i32 0, i32 2
  store i32 %61, i32* %65, align 4
  %66 = load i32, i32* %4, align 4
  %67 = load i32, i32* %4, align 4
  %68 = sext i32 %67 to i64
  %69 = getelementptr inbounds [8 x %struct.num], [8 x %struct.num]* %10, i64 0, i64 %68
  %70 = getelementptr inbounds %struct.num, %struct.num* %69, i32 0, i32 0
  store i32 %66, i32* %70, align 4
  %71 = load i32, i32* %5, align 4
  %72 = load i32, i32* %4, align 4
  %73 = sext i32 %72 to i64
  %74 = getelementptr inbounds [8 x %struct.num], [8 x %struct.num]* %10, i64 0, i64 %73
  %75 = getelementptr inbounds %struct.num, %struct.num* %74, i32 0, i32 1
  store i32 %71, i32* %75, align 4
  br label %76

76:                                               ; preds = %53, %43
  br label %77

77:                                               ; preds = %76
  %78 = load i32, i32* %5, align 4
  %79 = add nsw i32 %78, 1
  store i32 %79, i32* %5, align 4
  br label %39

80:                                               ; preds = %39
  br label %81

81:                                               ; preds = %80
  %82 = load i32, i32* %4, align 4
  %83 = add nsw i32 %82, 1
  store i32 %83, i32* %4, align 4
  br label %13

84:                                               ; preds = %13
  store i32 0, i32* %5, align 4
  br label %85

85:                                               ; preds = %137, %84
  %86 = load i32, i32* %5, align 4
  %87 = load i32, i32* %3, align 4
  %88 = icmp slt i32 %86, %87
  br i1 %88, label %89, label %140

89:                                               ; preds = %85
  %90 = getelementptr inbounds [8 x [8 x i32]], [8 x [8 x i32]]* %8, i64 0, i64 0
  %91 = load i32, i32* %5, align 4
  %92 = sext i32 %91 to i64
  %93 = getelementptr inbounds [8 x i32], [8 x i32]* %90, i64 0, i64 %92
  %94 = load i32, i32* %93, align 4
  store i32 %94, i32* %7, align 4
  store i32 0, i32* %4, align 4
  br label %95

95:                                               ; preds = %133, %89
  %96 = load i32, i32* %4, align 4
  %97 = load i32, i32* %2, align 4
  %98 = icmp slt i32 %96, %97
  br i1 %98, label %99, label %136

99:                                               ; preds = %95
  %100 = load i32, i32* %4, align 4
  %101 = sext i32 %100 to i64
  %102 = getelementptr inbounds [8 x [8 x i32]], [8 x [8 x i32]]* %8, i64 0, i64 %101
  %103 = load i32, i32* %5, align 4
  %104 = sext i32 %103 to i64
  %105 = getelementptr inbounds [8 x i32], [8 x i32]* %102, i64 0, i64 %104
  %106 = load i32, i32* %105, align 4
  %107 = load i32, i32* %7, align 4
  %108 = icmp sle i32 %106, %107
  br i1 %108, label %109, label %132

109:                                              ; preds = %99
  %110 = load i32, i32* %4, align 4
  %111 = sext i32 %110 to i64
  %112 = getelementptr inbounds [8 x [8 x i32]], [8 x [8 x i32]]* %8, i64 0, i64 %111
  %113 = load i32, i32* %5, align 4
  %114 = sext i32 %113 to i64
  %115 = getelementptr inbounds [8 x i32], [8 x i32]* %112, i64 0, i64 %114
  %116 = load i32, i32* %115, align 4
  store i32 %116, i32* %7, align 4
  %117 = load i32, i32* %7, align 4
  %118 = load i32, i32* %5, align 4
  %119 = sext i32 %118 to i64
  %120 = getelementptr inbounds [8 x %struct.num], [8 x %struct.num]* %11, i64 0, i64 %119
  %121 = getelementptr inbounds %struct.num, %struct.num* %120, i32 0, i32 2
  store i32 %117, i32* %121, align 4
  %122 = load i32, i32* %4, align 4
  %123 = load i32, i32* %5, align 4
  %124 = sext i32 %123 to i64
  %125 = getelementptr inbounds [8 x %struct.num], [8 x %struct.num]* %11, i64 0, i64 %124
  %126 = getelementptr inbounds %struct.num, %struct.num* %125, i32 0, i32 0
  store i32 %122, i32* %126, align 4
  %127 = load i32, i32* %5, align 4
  %128 = load i32, i32* %5, align 4
  %129 = sext i32 %128 to i64
  %130 = getelementptr inbounds [8 x %struct.num], [8 x %struct.num]* %11, i64 0, i64 %129
  %131 = getelementptr inbounds %struct.num, %struct.num* %130, i32 0, i32 1
  store i32 %127, i32* %131, align 4
  br label %132

132:                                              ; preds = %109, %99
  br label %133

133:                                              ; preds = %132
  %134 = load i32, i32* %4, align 4
  %135 = add nsw i32 %134, 1
  store i32 %135, i32* %4, align 4
  br label %95

136:                                              ; preds = %95
  br label %137

137:                                              ; preds = %136
  %138 = load i32, i32* %5, align 4
  %139 = add nsw i32 %138, 1
  store i32 %139, i32* %5, align 4
  br label %85

140:                                              ; preds = %85
  store i32 0, i32* %4, align 4
  br label %141

141:                                              ; preds = %179, %140
  %142 = load i32, i32* %4, align 4
  %143 = load i32, i32* %2, align 4
  %144 = icmp slt i32 %142, %143
  br i1 %144, label %145, label %182

145:                                              ; preds = %141
  store i32 0, i32* %5, align 4
  br label %146

146:                                              ; preds = %175, %145
  %147 = load i32, i32* %5, align 4
  %148 = load i32, i32* %3, align 4
  %149 = icmp slt i32 %147, %148
  br i1 %149, label %150, label %178

150:                                              ; preds = %146
  %151 = load i32, i32* %4, align 4
  %152 = sext i32 %151 to i64
  %153 = getelementptr inbounds [8 x %struct.num], [8 x %struct.num]* %10, i64 0, i64 %152
  %154 = getelementptr inbounds %struct.num, %struct.num* %153, i32 0, i32 2
  %155 = load i32, i32* %154, align 4
  %156 = load i32, i32* %5, align 4
  %157 = sext i32 %156 to i64
  %158 = getelementptr inbounds [8 x %struct.num], [8 x %struct.num]* %11, i64 0, i64 %157
  %159 = getelementptr inbounds %struct.num, %struct.num* %158, i32 0, i32 2
  %160 = load i32, i32* %159, align 4
  %161 = icmp eq i32 %155, %160
  br i1 %161, label %162, label %174

162:                                              ; preds = %150
  %163 = load i32, i32* %4, align 4
  %164 = sext i32 %163 to i64
  %165 = getelementptr inbounds [8 x %struct.num], [8 x %struct.num]* %10, i64 0, i64 %164
  %166 = getelementptr inbounds %struct.num, %struct.num* %165, i32 0, i32 0
  %167 = load i32, i32* %166, align 4
  %168 = load i32, i32* %4, align 4
  %169 = sext i32 %168 to i64
  %170 = getelementptr inbounds [8 x %struct.num], [8 x %struct.num]* %10, i64 0, i64 %169
  %171 = getelementptr inbounds %struct.num, %struct.num* %170, i32 0, i32 1
  %172 = load i32, i32* %171, align 4
  %173 = call i32 (i8*, ...) @printf(i8* getelementptr inbounds ([6 x i8], [6 x i8]* @.str.2, i64 0, i64 0), i32 %167, i32 %172)
  store i32 1, i32* %9, align 4
  br label %178

174:                                              ; preds = %150
  br label %175

175:                                              ; preds = %174
  %176 = load i32, i32* %5, align 4
  %177 = add nsw i32 %176, 1
  store i32 %177, i32* %5, align 4
  br label %146

178:                                              ; preds = %162, %146
  br label %179

179:                                              ; preds = %178
  %180 = load i32, i32* %4, align 4
  %181 = add nsw i32 %180, 1
  store i32 %181, i32* %4, align 4
  br label %141

182:                                              ; preds = %141
  %183 = load i32, i32* %9, align 4
  %184 = icmp eq i32 %183, 0
  br i1 %184, label %185, label %187

185:                                              ; preds = %182
  %186 = call i32 (i8*, ...) @printf(i8* getelementptr inbounds ([3 x i8], [3 x i8]* @.str.3, i64 0, i64 0))
  br label %187

187:                                              ; preds = %185, %182
  ret i32 0
}

declare dso_local i32 @__isoc99_scanf(i8*, ...) #1

declare dso_local i32 @printf(i8*, ...) #1


!llvm.module.flags = !{!0}
!llvm.ident = !{!1}

!0 = !{i32 1, !"wchar_size", i32 4}
!1 = !{!"clang version 10.0.0-4ubuntu1 "}
